; ModuleID = 'source-C-CXX/3/1504.c'
source_filename = "source-C-CXX/3/1504.c"
target datalayout = "e-m:e-p270:32:32-p271:32:32-p272:64:64-i64:64-f80:128-n8:16:32:64-S128"
target triple = "x86_64-pc-linux-gnu"

@.str = private unnamed_addr constant [5 x i8] c"%d%d\00", align 1
@.str.1 = private unnamed_addr constant [3 x i8] c"%d\00", align 1
@.str.2 = private unnamed_addr constant [4 x i8] c"%d\0A\00", align 1

; Function Attrs: nofree nounwind sspstrong uwtable
define dso_local i32 @main() local_unnamed_addr #0 {
  %1 = alloca i32, align 4
  %2 = alloca i32, align 4
  %3 = alloca [100 x [100 x i32]], align 16
  %4 = bitcast i32* %1 to i8*
  call void @llvm.lifetime.start.p0i8(i64 4, i8* nonnull %4) #3
  %5 = bitcast i32* %2 to i8*
  call void @llvm.lifetime.start.p0i8(i64 4, i8* nonnull %5) #3
  %6 = bitcast [100 x [100 x i32]]* %3 to i8*
  call void @llvm.lifetime.start.p0i8(i64 40000, i8* nonnull %6) #3
  %7 = call i32 (i8*, ...) @__isoc99_scanf(i8* getelementptr inbounds ([5 x i8], [5 x i8]* @.str, i64 0, i64 0), i32* nonnull %2, i32* nonnull %1)
  %8 = load i32, i32* %2, align 4, !tbaa !5
  %9 = icmp sgt i32 %8, 0
  %10 = load i32, i32* %1, align 4, !tbaa !5
  br i1 %9, label %11, label %18

11:                                               ; preds = %0
  %12 = icmp sgt i32 %10, 0
  br i1 %12, label %13, label %45

13:                                               ; preds = %11, %34
  %14 = phi i32 [ %35, %34 ], [ %8, %11 ]
  %15 = phi i32 [ %36, %34 ], [ %10, %11 ]
  %16 = phi i64 [ %37, %34 ], [ 0, %11 ]
  %17 = icmp sgt i32 %15, 0
  br i1 %17, label %24, label %34

18:                                               ; preds = %34, %0
  %19 = phi i32 [ %8, %0 ], [ %35, %34 ]
  %20 = phi i32 [ %10, %0 ], [ %36, %34 ]
  %21 = icmp sgt i32 %20, 0
  br i1 %21, label %22, label %45

22:                                               ; preds = %18
  %23 = icmp sgt i32 %19, 0
  br i1 %23, label %40, label %103

24:                                               ; preds = %13, %24
  %25 = phi i64 [ %28, %24 ], [ 0, %13 ]
  %26 = getelementptr inbounds [100 x [100 x i32]], [100 x [100 x i32]]* %3, i64 0, i64 %16, i64 %25
  %27 = call i32 (i8*, ...) @__isoc99_scanf(i8* getelementptr inbounds ([3 x i8], [3 x i8]* @.str.1, i64 0, i64 0), i32* nonnull %26)
  %28 = add nuw nsw i64 %25, 1
  %29 = load i32, i32* %1, align 4, !tbaa !5
  %30 = sext i32 %29 to i64
  %31 = icmp slt i64 %28, %30
  br i1 %31, label %24, label %32, !llvm.loop !9

32:                                               ; preds = %24
  %33 = load i32, i32* %2, align 4, !tbaa !5
  br label %34

34:                                               ; preds = %32, %13
  %35 = phi i32 [ %33, %32 ], [ %14, %13 ]
  %36 = phi i32 [ %29, %32 ], [ %15, %13 ]
  %37 = add nuw nsw i64 %16, 1
  %38 = sext i32 %35 to i64
  %39 = icmp slt i64 %37, %38
  br i1 %39, label %13, label %18, !llvm.loop !11

40:                                               ; preds = %22, %64
  %41 = phi i32 [ %65, %64 ], [ %20, %22 ]
  %42 = phi i32 [ %66, %64 ], [ %19, %22 ]
  %43 = phi i64 [ %67, %64 ], [ 0, %22 ]
  %44 = icmp sgt i32 %42, 0
  br i1 %44, label %49, label %64

45:                                               ; preds = %64, %11, %18
  %46 = phi i32 [ %20, %18 ], [ %10, %11 ], [ %65, %64 ]
  %47 = phi i32 [ %19, %18 ], [ %8, %11 ], [ %66, %64 ]
  %48 = icmp sgt i32 %47, 1
  br i1 %48, label %70, label %103

49:                                               ; preds = %40, %49
  %50 = phi i64 [ %55, %49 ], [ 0, %40 ]
  %51 = phi i64 [ %56, %49 ], [ %43, %40 ]
  %52 = getelementptr inbounds [100 x [100 x i32]], [100 x [100 x i32]]* %3, i64 0, i64 %50, i64 %51
  %53 = load i32, i32* %52, align 4, !tbaa !5
  %54 = call i32 (i8*, ...) @printf(i8* nonnull dereferenceable(1) getelementptr inbounds ([4 x i8], [4 x i8]* @.str.2, i64 0, i64 0), i32 %53)
  %55 = add nuw nsw i64 %50, 1
  %56 = add nsw i64 %51, -1
  %57 = icmp ult i64 %50, %43
  %58 = load i32, i32* %2, align 4
  %59 = sext i32 %58 to i64
  %60 = icmp slt i64 %55, %59
  %61 = select i1 %57, i1 %60, i1 false
  br i1 %61, label %49, label %62, !llvm.loop !13

62:                                               ; preds = %49
  %63 = load i32, i32* %1, align 4, !tbaa !5
  br label %64

64:                                               ; preds = %62, %40
  %65 = phi i32 [ %63, %62 ], [ %41, %40 ]
  %66 = phi i32 [ %58, %62 ], [ %42, %40 ]
  %67 = add nuw nsw i64 %43, 1
  %68 = sext i32 %65 to i64
  %69 = icmp slt i64 %67, %68
  br i1 %69, label %40, label %45, !llvm.loop !14

70:                                               ; preds = %45, %100
  %71 = phi i32 [ %97, %100 ], [ %47, %45 ]
  %72 = phi i32 [ %102, %100 ], [ %46, %45 ]
  %73 = phi i64 [ %101, %100 ], [ 1, %45 ]
  %74 = phi i32 [ %98, %100 ], [ 1, %45 ]
  %75 = icmp sgt i32 %72, 0
  %76 = icmp slt i32 %74, %71
  %77 = select i1 %75, i1 %76, i1 false
  br i1 %77, label %78, label %96

78:                                               ; preds = %70
  %79 = zext i32 %72 to i64
  br label %80

80:                                               ; preds = %78, %80
  %81 = phi i64 [ %73, %78 ], [ %89, %80 ]
  %82 = phi i64 [ %79, %78 ], [ %95, %80 ]
  %83 = phi i32 [ %72, %78 ], [ %84, %80 ]
  %84 = add nsw i32 %83, -1
  %85 = zext i32 %84 to i64
  %86 = getelementptr inbounds [100 x [100 x i32]], [100 x [100 x i32]]* %3, i64 0, i64 %81, i64 %85
  %87 = load i32, i32* %86, align 4, !tbaa !5
  %88 = call i32 (i8*, ...) @printf(i8* nonnull dereferenceable(1) getelementptr inbounds ([4 x i8], [4 x i8]* @.str.2, i64 0, i64 0), i32 %87)
  %89 = add nuw nsw i64 %81, 1
  %90 = icmp sgt i64 %82, 1
  %91 = load i32, i32* %2, align 4
  %92 = trunc i64 %89 to i32
  %93 = icmp sgt i32 %91, %92
  %94 = select i1 %90, i1 %93, i1 false
  %95 = add nsw i64 %82, -1
  br i1 %94, label %80, label %96, !llvm.loop !15

96:                                               ; preds = %80, %70
  %97 = phi i32 [ %71, %70 ], [ %91, %80 ]
  %98 = add nuw nsw i32 %74, 1
  %99 = icmp slt i32 %98, %97
  br i1 %99, label %100, label %103, !llvm.loop !16

100:                                              ; preds = %96
  %101 = add nuw nsw i64 %73, 1
  %102 = load i32, i32* %1, align 4, !tbaa !5
  br label %70

103:                                              ; preds = %96, %22, %45
  call void @llvm.lifetime.end.p0i8(i64 40000, i8* nonnull %6) #3
  call void @llvm.lifetime.end.p0i8(i64 4, i8* nonnull %5) #3
  call void @llvm.lifetime.end.p0i8(i64 4, i8* nonnull %4) #3
  ret i32 0
}

; Function Attrs: argmemonly mustprogress nofree nosync nounwind willreturn
declare void @llvm.lifetime.start.p0i8(i64 immarg, i8* nocapture) #1

; Function Attrs: nofree nounwind
declare noundef i32 @__isoc99_scanf(i8* nocapture noundef readonly, ...) local_unnamed_addr #2

; Function Attrs: nofree nounwind
declare noundef i32 @printf(i8* nocapture noundef readonly, ...) local_unnamed_addr #2

; Function Attrs: argmemonly mustprogress nofree nosync nounwind willreturn
declare void @llvm.lifetime.end.p0i8(i64 immarg, i8* nocapture) #1


!llvm.module.flags = !{!0, !1, !2, !3}
!llvm.ident = !{!4}

!0 = !{i32 1, !"wchar_size", i32 4}
!1 = !{i32 7, !"PIC Level", i32 2}
!2 = !{i32 7, !"PIE Level", i32 2}
!3 = !{i32 7, !"uwtable", i32 1}
!4 = !{!"clang version 13.0.0"}
!5 = !{!6, !6, i64 0}
!6 = !{!"int", !7, i64 0}
!7 = !{!"omnipotent char", !8, i64 0}
!8 = !{!"Simple C/C++ TBAA"}
!9 = distinct !{!9, !10}
!10 = !{!"llvm.loop.mustprogress"}
!11 = distinct !{!11, !10, !12}
!12 = !{!"llvm.loop.unswitch.partial.disable"}
!13 = distinct !{!13, !10}
!14 = distinct !{!14, !10, !12}
!15 = distinct !{!15, !10}
!16 = distinct !{!16, !10}
